; Function Attrs: mustprogress ssp uwtable
define void @_ZN6open3d4core10shape_util6ConcatERKNS0_10SizeVectorES4_(ptr dead_on_unwind noalias nonnull writable sret(%"class.open3d::core::SizeVector") align 8 %0, ptr noundef nonnull align 8 dereferenceable(48) %1, ptr noundef nonnull readonly align 8 captures(none) dereferenceable(48) %2) local_unnamed_addr #2 personality ptr @__gxx_personality_v0 {
  tail call void @_ZN6open3d4core10SizeVectorC1ERKS1_(ptr noundef nonnull align 8 dereferenceable(48) %0, ptr noundef nonnull align 8 dereferenceable(48) %1)
  %4 = load ptr, ptr %0, align 8, !tbaa !10
  %5 = getelementptr inbounds nuw i8, ptr %0, i64 8
  %6 = load i32, ptr %5, align 8, !tbaa !4
  %7 = zext i32 %6 to i64
  %8 = getelementptr inbounds nuw i64, ptr %4, i64 %7
  %9 = load ptr, ptr %2, align 8, !tbaa !10
  %10 = getelementptr inbounds nuw i8, ptr %2, i64 8
  %11 = load i32, ptr %10, align 8, !tbaa !4
  %12 = zext i32 %11 to i64
  %13 = getelementptr inbounds nuw i64, ptr %9, i64 %12
  %14 = invoke noundef ptr @_ZN6open3d4core15SmallVectorImplIlE6insertIPKlvEEPlS6_T_S7_(ptr noundef nonnull align 8 dereferenceable(16) %0, ptr noundef %8, ptr noundef %9, ptr noundef %13)
          to label %21 unwind label %15

15:                                               ; preds = %3
  %16 = landingpad { ptr, i32 }
          cleanup
  %17 = load ptr, ptr %0, align 8, !tbaa !10
  %18 = getelementptr inbounds nuw i8, ptr %0, i64 16
  %19 = icmp eq ptr %17, %18
  br i1 %19, label %_ZN6open3d4core11SmallVectorIlLj4EED2Ev.exit, label %20

20:                                               ; preds = %15
  tail call void @free(ptr noundef %17) #30
  br label %_ZN6open3d4core11SmallVectorIlLj4EED2Ev.exit

_ZN6open3d4core11SmallVectorIlLj4EED2Ev.exit:     ; preds = %15, %20
  resume { ptr, i32 } %16

21:                                               ; preds = %3
  ret void
}